target datalayout = "e-m:e-p270:32:32-p271:32:32-p272:64:64-i64:64-i128:128-f80:128-n8:16:32:64-S128"
target triple = "x86_64-unknown-linux-gnu"

%"class.std::__cxx11::basic_string" = type { %"struct.std::__cxx11::basic_string<char>::_Alloc_hider", i64, %union.anon }
%"struct.std::__cxx11::basic_string<char>::_Alloc_hider" = type { ptr }
%union.anon = type { i64, [8 x i8] }
%"class.llvh::Timer" = type { %"class.llvh::TimeRecord", %"class.llvh::TimeRecord", %"class.std::__cxx11::basic_string", %"class.std::__cxx11::basic_string", i8, i8, ptr, ptr, ptr }
%"class.llvh::TimeRecord" = type { double, double, double, i64 }

; Function Attrs: mustprogress nounwind uwtable
define linkonce_odr hidden void @_ZN4llvh10TimeRecordC2Ev(ptr noundef nonnull align 8 dereferenceable(32) %this) unnamed_addr #1 comdat align 2 {
entry:
  %this.addr = alloca ptr, align 8
  store ptr %this, ptr %this.addr, align 8
  %this1 = load ptr, ptr %this.addr, align 8
  %WallTime = getelementptr inbounds %"class.llvh::TimeRecord", ptr %this1, i32 0, i32 0
  store double 0.000000e+00, ptr %WallTime, align 8
  %UserTime = getelementptr inbounds %"class.llvh::TimeRecord", ptr %this1, i32 0, i32 1
  store double 0.000000e+00, ptr %UserTime, align 8
  %SystemTime = getelementptr inbounds %"class.llvh::TimeRecord", ptr %this1, i32 0, i32 2
  store double 0.000000e+00, ptr %SystemTime, align 8
  %MemUsed = getelementptr inbounds %"class.llvh::TimeRecord", ptr %this1, i32 0, i32 3
  store i64 0, ptr %MemUsed, align 8
  ret void
}

; Function Attrs: mustprogress nounwind uwtable
define hidden void @_ZN4llvh5Timer5clearEv(ptr noundef nonnull align 8 dereferenceable(160) %this) #1 align 2 {
entry:
  %this.addr = alloca ptr, align 8
  %ref.tmp = alloca %"class.llvh::TimeRecord", align 8
  store ptr %this, ptr %this.addr, align 8
  %this1 = load ptr, ptr %this.addr, align 8
  %Triggered = getelementptr inbounds %"class.llvh::Timer", ptr %this1, i32 0, i32 5
  store i8 0, ptr %Triggered, align 1
  %Running = getelementptr inbounds %"class.llvh::Timer", ptr %this1, i32 0, i32 4
  store i8 0, ptr %Running, align 8
  call void @_ZN4llvh10TimeRecordC2Ev(ptr noundef nonnull align 8 dereferenceable(32) %ref.tmp)
  %StartTime = getelementptr inbounds %"class.llvh::Timer", ptr %this1, i32 0, i32 1
  call void @llvm.memcpy.p0.p0.i64(ptr align 8 %StartTime, ptr align 8 %ref.tmp, i64 32, i1 false)
  %Time = getelementptr inbounds %"class.llvh::Timer", ptr %this1, i32 0, i32 0
  call void @llvm.memcpy.p0.p0.i64(ptr align 8 %Time, ptr align 8 %StartTime, i64 32, i1 false)
  ret void
}