; Function Attrs: mustprogress nofree norecurse nosync nounwind willreturn memory(argmem: write) uwtable
define hidden void @_ZN4llvh5Timer5clearEv(ptr nocapture noundef nonnull writeonly align 8 dereferenceable(160) %this) local_unnamed_addr #5 align 2 {
entry:
  %Triggered = getelementptr inbounds i8, ptr %this, i64 129
  store i8 0, ptr %Triggered, align 1
  %Running = getelementptr inbounds i8, ptr %this, i64 128
  store i8 0, ptr %Running, align 8
  tail call void @llvm.memset.p0.i64(ptr noundef nonnull align 8 dereferenceable(64) %this, i8 0, i64 64, i1 false)
  ret void
}